Certificate:
    Data:
        Version: 3 (0x2)
        Serial Number:
            2d:0f:e5:f0:00:44:77:c3:e0:31:8d:ba:18:07:c8:bb
        Signature Algorithm: sha256WithRSAEncryption
        Issuer: C=IN, O=Example, CN=Example.com
        Validity
            Not Before: Jun 15 06:33:26 2019 GMT
            Not After : Jun 12 06:33:26 2029 GMT
        Subject: C=IN, O=Example, CN=Example.com
        Subject Public Key Info:
            Public Key Algorithm: rsaEncryption
                RSA Public-Key: (4096 bit)
                Modulus:
                    00:ed:5b:55:5c:b2:bb:1c:25:c9:64:59:36:31:c7:
                    4e:77:66:87:48:ec:9d:4b:8f:b8:5d:44:4f:98:dd:
                    e0:c1:4f:0d:27:7f:6f:e9:03:c5:4c:5a:76:cb:6b:
                    c6:3d:51:7c:90:1a:ec:44:1c:88:7f:04:d1:af:2c:
                    04:a3:03:35:cb:15:2c:c7:74:06:8d:4c:68:10:cb:
                    4d:c1:a3:27:d2:77:e3:5f:21:72:a0:d1:0e:51:77:
                    80:a0:19:70:d3:7f:01:dc:bb:79:2e:6c:5f:10:dc:
                    be:07:a8:1e:7a:50:cc:ac:aa:6a:bf:9b:52:93:7a:
                    6e:ae:85:27:55:99:4d:68:08:91:d4:f3:b7:9c:fa:
                    55:fb:9b:84:ad:d5:cb:9c:0c:7b:19:34:b0:23:45:
                    e3:86:f9:e6:27:60:5d:b4:12:c1:80:c0:c1:f6:d8:
                    99:5d:90:fb:81:4e:0f:7e:c6:3b:13:58:07:4b:09:
                    22:b6:46:ab:c3:9a:7e:b1:d6:11:d4:a4:84:74:e3:
                    f7:f3:98:33:03:7f:63:e0:4b:94:ac:99:be:d7:86:
                    b5:34:7e:ff:6b:63:35:68:a8:16:f4:5b:9e:17:c2:
                    d2:c0:5f:9a:1d:b3:48:04:98:dc:0c:80:0b:e6:78:
                    ec:95:91:76:7c:e3:9d:3a:65:e5:a5:97:f5:61:a2:
                    1d:4c:5f:ba:38:29:0c:f5:15:a3:20:3c:02:01:33:
                    19:ae:3b:6e:a4:32:6a:25:c1:c8:79:3a:48:10:0a:
                    14:18:11:a1:75:10:e7:15:65:d1:36:f4:34:42:97:
                    34:d0:ff:c4:81:4f:ff:60:e0:71:bd:91:8a:ce:dd:
                    b7:c2:f5:1d:2d:ac:58:8e:92:da:04:b6:31:0f:be:
                    5f:a3:39:ea:37:70:86:11:78:cf:3e:92:4f:c8:7c:
                    f6:a4:9d:11:a3:63:a3:7d:14:02:43:b4:06:bb:de:
                    c2:d5:d0:0c:5c:bf:c9:a0:36:40:23:8f:1f:34:88:
                    fa:35:b3:47:c8:c3:d0:ce:b9:19:40:23:56:69:37:
                    cf:4e:72:c4:9e:cb:27:c4:50:44:9c:e6:58:97:0f:
                    40:23:e1:d6:62:d8:70:3c:5f:a8:2b:2a:78:54:18:
                    a9:b0:ca:14:e5:6a:24:f0:a4:2e:c8:82:0c:ff:ac:
                    ef:95:72:02:af:a5:7a:b1:03:a7:a0:6f:77:f9:50:
                    90:c8:69:3f:9a:ce:f5:e1:9f:6c:bd:82:85:a2:b9:
                    8e:cf:f3:85:3e:4a:27:95:da:5d:70:50:35:c0:fa:
                    1a:4c:4b:37:90:60:44:f4:6d:e6:96:d0:69:93:b7:
                    e6:a2:04:d9:db:e6:f1:3b:cd:82:31:0b:e7:17:96:
                    a4:d6:8b
                Exponent: 65537 (0x10001)
        X509v3 extensions:
            X509v3 Basic Constraints: critical
                CA:TRUE
            X509v3 Key Usage: critical
                Certificate Sign, CRL Sign
            X509v3 Subject Key Identifier: 
                BB:6D:80:20:31:B4:7D:C1:8D:7B:4F:EE:E2:01:F2:91:DF:09:38:08
    Signature Algorithm: sha256WithRSAEncryption
         56:e1:1b:ef:a0:38:01:d2:d2:24:7b:7a:aa:d2:e6:ee:68:09:
         a9:d1:25:80:fc:b6:7d:3e:a5:1e:67:9d:e5:d5:6c:18:87:d8:
         cd:cf:d6:c3:84:29:5a:b3:62:98:d6:6a:a9:21:1b:eb:c0:fc:
         17:80:cc:f1:d8:5f:f3:49:35:9f:ef:1c:61:81:02:3b:fe:e7:
         98:40:df:9c:ea:13:ad:7b:b2:fb:48:d9:77:92:9e:10:3b:0b:
         52:94:45:30:37:92:76:d0:2d:69:74:dd:c5:25:22:25:a0:bc:
         9e:0d:3a:eb:a5:bd:24:54:b9:78:25:61:bf:9d:4a:d9:40:51:
         07:c6:11:2b:41:99:b9:ca:90:33:74:d8:82:19:5f:72:b3:88:
         6d:9e:17:bb:f7:c4:b3:5f:d6:bd:ff:1b:90:d3:60:20:ed:e2:
         8c:1e:0e:81:8d:d0:65:46:6f:3b:12:55:ff:cc:8e:a8:ed:7f:
         1b:b6:99:e4:a8:a4:fc:3b:f9:ae:43:9a:83:c8:15:13:f8:49:
         d3:da:f5:38:c9:f1:77:b1:2e:42:45:6d:57:83:97:df:11:be:
         fc:c3:98:cd:a0:d9:a4:ec:9b:1e:ad:27:8c:5a:c3:37:d1:38:
         ed:98:cf:d6:c8:77:c4:25:82:1d:33:87:f6:05:5a:eb:fd:b5:
         d9:5c:2e:25:d2:a9:ef:b6:bc:24:b9:09:bd:d9:51:1b:19:f9:
         b2:db:aa:bb:f5:70:f4:06:52:fc:07:18:d8:2f:9f:9e:cb:b2:
         91:67:2c:e5:c0:ac:ce:3c:cd:51:5d:ec:a2:c8:d7:7e:f9:7f:
         40:f6:da:2f:5f:be:85:dc:92:81:a5:14:5f:4b:8e:cc:06:83:
         9e:63:07:0f:ab:9c:d1:e6:e1:ec:5a:cd:34:40:7d:a6:d7:ca:
         c5:ca:f0:69:c1:66:90:8f:3c:a5:74:57:9c:65:7f:43:ab:21:
         38:9e:10:0f:01:75:e3:1c:5f:ab:f8:ea:c8:30:fc:8b:f3:3e:
         cf:7d:28:60:44:ae:24:7f:0f:b7:3f:a5:46:59:fe:a3:57:3b:
         f8:bd:77:bd:ee:35:f4:ac:0f:2a:72:fd:eb:8f:ee:b2:0e:f2:
         97:32:db:14:cd:d1:2c:7d:ce:66:ba:92:01:0d:bf:ea:77:6b:
         70:2e:f7:5e:3a:51:22:f7:dd:cf:b3:79:f8:f7:66:bf:ce:4e:
         91:f6:46:2b:94:11:97:b6:10:b8:6c:8b:50:dd:75:cb:51:af:
         a3:5a:0c:c9:bc:2e:a5:07:d2:09:3c:7e:7a:0f:f5:29:6d:fb:
         af:1e:d9:30:ec:1e:05:7f:b0:7d:ff:3d:01:54:75:b9:44:d4:
         ab:7b:19:28:51:b3:e3:6c
-----BEGIN CERTIFICATE-----
MIIFNjCCAx6gAwIBAgIQLQ/l8ABEd8PgMY26GAfIuzANBgkqhkiG9w0BAQsFADA1
MQswCQYDVQQGEwJJTjEQMA4GA1UECgwHRXhhbXBsZTEUMBIGA1UEAwwLRXhhbXBs
ZS5jb20wHhcNMTkwNjE1MDYzMzI2WhcNMjkwNjEyMDYzMzI2WjA1MQswCQYDVQQG
EwJJTjEQMA4GA1UECgwHRXhhbXBsZTEUMBIGA1UEAwwLRXhhbXBsZS5jb20wggIi
MA0GCSqGSIb3DQEBAQUAA4ICDwAwggIKAoICAQDtW1VcsrscJclkWTYxx053ZodI
7J1Lj7hdRE+Y3eDBTw0nf2/pA8VMWnbLa8Y9UXyQGuxEHIh/BNGvLASjAzXLFSzH
dAaNTGgQy03BoyfSd+NfIXKg0Q5Rd4CgGXDTfwHcu3kubF8Q3L4HqB56UMysqmq/
m1KTem6uhSdVmU1oCJHU87ec+lX7m4St1cucDHsZNLAjReOG+eYnYF20EsGAwMH2
2JldkPuBTg9+xjsTWAdLCSK2RqvDmn6x1hHUpIR04/fzmDMDf2PgS5Ssmb7XhrU0
fv9rYzVoqBb0W54XwtLAX5ods0gEmNwMgAvmeOyVkXZ84506ZeWll/Vhoh1MX7o4
KQz1FaMgPAIBMxmuO26kMmolwch5OkgQChQYEaF1EOcVZdE29DRClzTQ/8SBT/9g
4HG9kYrO3bfC9R0trFiOktoEtjEPvl+jOeo3cIYReM8+kk/IfPaknRGjY6N9FAJD
tAa73sLV0Axcv8mgNkAjjx80iPo1s0fIw9DOuRlAI1ZpN89OcsSeyyfEUESc5liX
D0Aj4dZi2HA8X6grKnhUGKmwyhTlaiTwpC7Iggz/rO+VcgKvpXqxA6egb3f5UJDI
aT+azvXhn2y9goWiuY7P84U+SieV2l1wUDXA+hpMSzeQYET0beaW0GmTt+aiBNnb
5vE7zYIxC+cXlqTWiwIDAQABo0IwQDAPBgNVHRMBAf8EBTADAQH/MA4GA1UdDwEB
/wQEAwIBBjAdBgNVHQ4EFgQUu22AIDG0fcGNe0/u4gHykd8JOAgwDQYJKoZIhvcN
AQELBQADggIBAFbhG++gOAHS0iR7eqrS5u5oCanRJYD8tn0+pR5nneXVbBiH2M3P
1sOEKVqzYpjWaqkhG+vA/BeAzPHYX/NJNZ/vHGGBAjv+55hA35zqE617svtI2XeS
nhA7C1KURTA3knbQLWl03cUlIiWgvJ4NOuulvSRUuXglYb+dStlAUQfGEStBmbnK
kDN02IIZX3KziG2eF7v3xLNf1r3/G5DTYCDt4oweDoGN0GVGbzsSVf/Mjqjtfxu2
meSopPw7+a5DmoPIFRP4SdPa9TjJ8XexLkJFbVeDl98RvvzDmM2g2aTsmx6tJ4xa
wzfROO2Yz9bId8Qlgh0zh/YFWuv9tdlcLiXSqe+2vCS5Cb3ZURsZ+bLbqrv1cPQG
UvwHGNgvn57LspFnLOXArM48zVFd7KLI1375f0D22i9fvoXckoGlFF9LjswGg55j
Bw+rnNHm4exazTRAfabXysXK8GnBZpCPPKV0V5xlf0OrITieEA8BdeMcX6v46sgw
/IvzPs99KGBEriR/D7c/pUZZ/qNXO/i9d73uNfSsDypy/euP7rIO8pcy2xTN0Sx9
zma6kgENv+p3a3Au9146USL33c+zefj3Zr/OTpH2RiuUEZe2ELhsi1DddctRr6Na
DMm8LqUH0gk8fnoP9Slt+68e2TDsHgV/sH3/PQFUdblE1Kt7GShRs+Ns
-----END CERTIFICATE-----
