Certificate:
    Data:
        Version: 3 (0x2)
        Serial Number:
            2d:0f:e5:f0:00:44:77:c3:e0:31:8d:ba:18:07:c8:bc
        Signature Algorithm: sha256WithRSAEncryption
        Issuer: C=IN, O=Example, CN=Example.com
        Validity
            Not Before: Jun 15 07:18:31 2019 GMT
            Not After : Jun 12 07:18:31 2029 GMT
        Subject: C=IN, O=Example, CN=Example SubCA
        Subject Public Key Info:
            Public Key Algorithm: rsaEncryption
                RSA Public-Key: (4096 bit)
                Modulus:
                    00:f3:e6:b0:a4:d9:b8:6d:ae:40:6d:aa:c6:93:d3:
                    0b:e9:90:cb:07:4d:b0:5b:bf:75:39:ad:23:c5:ae:
                    63:46:1b:3d:18:fd:68:7c:75:4f:4a:7b:a8:99:50:
                    90:80:f6:23:94:2e:0a:e1:0f:aa:eb:7f:0a:02:ec:
                    00:ec:7a:50:16:ab:3c:8b:97:4d:54:d2:2a:37:a4:
                    81:fa:db:46:36:b2:78:0d:b1:f1:1e:08:85:3d:d3:
                    f5:8d:f6:f8:20:64:92:4c:71:dd:43:27:34:d1:06:
                    b3:30:a1:8b:53:03:9c:68:83:d8:2f:03:94:f5:37:
                    bb:90:d6:3e:84:c7:3d:ea:f1:0e:1d:55:6d:0d:1d:
                    4c:3a:0a:c9:a6:2f:24:88:3f:a5:ab:b1:c5:bf:93:
                    93:27:e9:5f:76:e0:d6:65:4f:c5:c9:8e:26:63:96:
                    c2:2a:b9:8c:09:fa:b8:02:7d:9b:25:55:35:55:29:
                    38:55:0a:67:2c:c4:35:8a:1d:e0:09:8b:c1:81:9d:
                    f2:d5:49:04:a5:ad:d1:ab:32:c8:df:d2:b3:4c:76:
                    55:b5:5b:ab:4c:91:89:42:1d:08:6d:fb:54:63:e4:
                    56:c5:b9:e8:cd:dc:f5:f0:ac:d6:4d:98:3e:66:f5:
                    20:69:9b:1f:b8:96:cd:9a:58:7c:0d:e0:71:ea:9c:
                    6e:e1:1d:74:2f:c5:57:1b:94:6d:07:b9:40:dc:ef:
                    96:bd:a5:d2:dc:14:8c:d7:0a:2d:58:c7:b4:aa:3c:
                    af:21:e0:30:01:32:7d:7f:7a:1d:10:e3:20:6c:d9:
                    ee:e3:74:1b:6d:20:27:c1:bd:ca:b8:7e:5b:57:a3:
                    4b:68:f5:1c:25:8a:32:6a:8c:74:6b:e0:2c:17:39:
                    c4:0b:6a:2c:de:76:4a:60:f5:b9:09:99:36:a1:23:
                    6a:62:2b:07:4c:b6:49:1f:b8:55:cc:c5:68:1c:4a:
                    62:be:b4:9d:b5:1e:12:18:3b:14:f6:36:f1:d7:1d:
                    d6:fd:fc:51:d6:af:96:ff:36:fa:9e:d0:78:2b:c9:
                    96:cd:82:22:11:15:2e:68:aa:32:d9:2f:ee:5a:ed:
                    ce:ee:17:d7:dd:51:f8:85:ff:3e:93:5c:fe:f6:d7:
                    d7:f2:46:5c:16:6a:70:33:d7:59:96:0f:4b:49:bc:
                    2e:25:77:66:ab:69:ae:fc:b3:bf:78:96:47:51:81:
                    2a:14:b5:ad:5d:15:bf:2e:6f:b8:ce:6d:fd:a4:2a:
                    63:da:69:7b:5d:1d:73:26:c2:2d:51:5d:44:92:84:
                    48:82:53:98:02:5c:81:63:53:a4:49:4a:77:1a:e4:
                    92:77:71:4e:84:5e:e3:cd:15:9c:0d:58:fe:39:91:
                    b3:7f:25
                Exponent: 65537 (0x10001)
        X509v3 extensions:
            Authority Information Access: 
                CA Issuers - URI:http://root-ca.example.com/root-ca.cr
                OCSP - URI:http://ocsp.root-ca.example.com:9080

            X509v3 Authority Key Identifier: 
                keyid:BB:6D:80:20:31:B4:7D:C1:8D:7B:4F:EE:E2:01:F2:91:DF:09:38:08

            X509v3 Basic Constraints: critical
                CA:TRUE, pathlen:0
            X509v3 CRL Distribution Points: 

                Full Name:
                  URI:http://root-ca.example.com/root-ca.crl

            X509v3 Extended Key Usage: 
                TLS Web Client Authentication, TLS Web Server Authentication
            X509v3 Key Usage: critical
                Certificate Sign, CRL Sign
            X509v3 Name Constraints: 
                Permitted:
                  DNS:example.com
                  DNS:example.org
                Excluded:
                  IP:0.0.0.0/0.0.0.0
                  IP:0:0:0:0:0:0:0:0/0:0:0:0:0:0:0:0

            X509v3 Subject Key Identifier: 
                DD:C4:4A:9E:ED:9B:87:2A:56:E0:FB:8C:6C:F5:C1:2C:79:D3:26:97
    Signature Algorithm: sha256WithRSAEncryption
         63:e9:7e:4c:1f:bd:eb:bd:7c:1f:83:f2:6b:93:91:a9:1b:f6:
         85:b1:a1:2e:f8:76:01:6e:54:f5:4d:14:9e:a7:77:a3:bc:57:
         49:fe:75:2c:e9:be:33:71:f2:f5:98:fd:e4:74:c4:bd:01:5a:
         45:f4:bf:25:dc:f3:61:8c:05:10:b3:b3:ee:86:33:79:24:ad:
         60:ba:cb:58:e6:2f:e3:33:12:81:cb:89:4a:2b:59:b6:52:17:
         b4:06:dc:fa:ad:d7:45:bf:cf:55:d6:08:2e:20:8a:36:ba:ba:
         0b:89:27:ed:e1:79:ec:cf:a8:df:a4:f9:c2:dd:ec:68:fc:25:
         8e:a8:50:d1:a4:43:04:91:6e:a3:84:55:b8:b8:54:81:b5:57:
         8d:f0:a1:f8:37:3a:39:02:b1:99:87:0e:bd:41:96:50:f0:6c:
         96:21:70:19:84:95:dc:35:8b:13:7e:f6:57:08:5d:49:9c:67:
         ec:82:1b:61:d0:bc:09:58:84:ee:45:58:6a:5d:ad:95:e7:88:
         a2:6c:3b:b6:6e:5e:a4:69:69:61:1f:a1:17:87:38:3e:61:bb:
         34:fb:12:01:49:ed:95:57:2d:d4:c8:fc:c5:0a:4e:c4:fb:5b:
         6b:ac:f5:d2:86:31:3a:0a:36:ce:d1:07:3f:7e:11:4b:60:ef:
         3c:b7:ce:44:bb:b3:2e:75:d0:ae:7b:8a:9b:ae:61:1d:86:54:
         2c:9b:a4:ee:36:09:bf:4c:f9:32:75:cc:4e:40:ef:83:79:cf:
         78:c3:20:92:3e:35:8f:91:12:b2:8c:29:8a:33:0c:18:a1:68:
         1a:e0:3d:49:f0:6d:6d:d2:37:1b:35:ca:4f:bc:4c:8d:2f:19:
         9f:a2:f9:88:92:35:13:a9:d9:f0:f4:a5:79:84:3a:2e:47:a4:
         45:b0:e8:20:ee:ce:9e:42:d6:e6:80:e9:ab:eb:da:8a:6c:3d:
         f8:73:b2:96:dc:93:81:a2:f5:cb:b2:30:43:7a:8c:c3:d3:2f:
         ed:71:b5:b2:74:b8:55:ad:3c:b1:fd:33:b6:e3:8c:0d:65:21:
         c8:7b:dc:7a:c9:71:1c:a3:c5:0b:bd:00:f3:26:25:be:b9:81:
         f9:5b:4e:75:08:aa:ad:07:f4:80:7d:af:25:f7:44:42:f2:61:
         8b:19:06:5a:3c:1b:72:17:b7:1c:b6:e3:15:2c:14:dc:81:39:
         c8:d0:0d:a0:e6:71:7a:e8:b3:5b:23:6b:03:e0:f6:f2:da:e5:
         f4:58:bd:c7:ff:dd:15:a3:5a:b7:17:40:da:19:d8:88:72:a8:
         22:ef:65:a1:b9:92:d2:69:7e:15:58:56:f8:8d:78:ad:db:0d:
         b8:cb:0d:a4:a4:3a:5e:e1
-----BEGIN CERTIFICATE-----
MIIGijCCBHKgAwIBAgIQLQ/l8ABEd8PgMY26GAfIvDANBgkqhkiG9w0BAQsFADA1
MQswCQYDVQQGEwJJTjEQMA4GA1UECgwHRXhhbXBsZTEUMBIGA1UEAwwLRXhhbXBs
ZS5jb20wHhcNMTkwNjE1MDcxODMxWhcNMjkwNjEyMDcxODMxWjA3MQswCQYDVQQG
EwJJTjEQMA4GA1UECgwHRXhhbXBsZTEWMBQGA1UEAwwNRXhhbXBsZSBTdWJDQTCC
AiIwDQYJKoZIhvcNAQEBBQADggIPADCCAgoCggIBAPPmsKTZuG2uQG2qxpPTC+mQ
ywdNsFu/dTmtI8WuY0YbPRj9aHx1T0p7qJlQkID2I5QuCuEPqut/CgLsAOx6UBar
PIuXTVTSKjekgfrbRjayeA2x8R4IhT3T9Y32+CBkkkxx3UMnNNEGszChi1MDnGiD
2C8DlPU3u5DWPoTHPerxDh1VbQ0dTDoKyaYvJIg/pauxxb+TkyfpX3bg1mVPxcmO
JmOWwiq5jAn6uAJ9myVVNVUpOFUKZyzENYod4AmLwYGd8tVJBKWt0asyyN/Ss0x2
VbVbq0yRiUIdCG37VGPkVsW56M3c9fCs1k2YPmb1IGmbH7iWzZpYfA3gceqcbuEd
dC/FVxuUbQe5QNzvlr2l0twUjNcKLVjHtKo8ryHgMAEyfX96HRDjIGzZ7uN0G20g
J8G9yrh+W1ejS2j1HCWKMmqMdGvgLBc5xAtqLN52SmD1uQmZNqEjamIrB0y2SR+4
VczFaBxKYr60nbUeEhg7FPY28dcd1v38Udavlv82+p7QeCvJls2CIhEVLmiqMtkv
7lrtzu4X191R+IX/PpNc/vbX1/JGXBZqcDPXWZYPS0m8LiV3Zqtprvyzv3iWR1GB
KhS1rV0Vvy5vuM5t/aQqY9ppe10dcybCLVFdRJKESIJTmAJcgWNTpElKdxrkkndx
ToRe480VnA1Y/jmRs38lAgMBAAGjggGSMIIBjjBzBggrBgEFBQcBAQRnMGUwMQYI
KwYBBQUHMAKGJWh0dHA6Ly9yb290LWNhLmV4YW1wbGUuY29tL3Jvb3QtY2EuY3Iw
MAYIKwYBBQUHMAGGJGh0dHA6Ly9vY3NwLnJvb3QtY2EuZXhhbXBsZS5jb206OTA4
MDAfBgNVHSMEGDAWgBS7bYAgMbR9wY17T+7iAfKR3wk4CDASBgNVHRMBAf8ECDAG
AQH/AgEAMDcGA1UdHwQwMC4wLKAqoCiGJmh0dHA6Ly9yb290LWNhLmV4YW1wbGUu
Y29tL3Jvb3QtY2EuY3JsMB0GA1UdJQQWMBQGCCsGAQUFBwMCBggrBgEFBQcDATAO
BgNVHQ8BAf8EBAMCAQYwWwYDVR0eBFQwUqAeMA2CC2V4YW1wbGUuY29tMA2CC2V4
YW1wbGUub3JnoTAwCocIAAAAAAAAAAAwIocgAAAAAAAAAAAAAAAAAAAAAAAAAAAA
AAAAAAAAAAAAAAAwHQYDVR0OBBYEFN3ESp7tm4cqVuD7jGz1wSx50yaXMA0GCSqG
SIb3DQEBCwUAA4ICAQBj6X5MH73rvXwfg/Jrk5GpG/aFsaEu+HYBblT1TRSep3ej
vFdJ/nUs6b4zcfL1mP3kdMS9AVpF9L8l3PNhjAUQs7PuhjN5JK1gustY5i/jMxKB
y4lKK1m2Uhe0Btz6rddFv89V1gguIIo2uroLiSft4Xnsz6jfpPnC3exo/CWOqFDR
pEMEkW6jhFW4uFSBtVeN8KH4Nzo5ArGZhw69QZZQ8GyWIXAZhJXcNYsTfvZXCF1J
nGfsghth0LwJWITuRVhqXa2V54iibDu2bl6kaWlhH6EXhzg+Ybs0+xIBSe2VVy3U
yPzFCk7E+1trrPXShjE6CjbO0Qc/fhFLYO88t85Eu7MuddCue4qbrmEdhlQsm6Tu
Ngm/TPkydcxOQO+Dec94wyCSPjWPkRKyjCmKMwwYoWga4D1J8G1t0jcbNcpPvEyN
LxmfovmIkjUTqdnw9KV5hDouR6RFsOgg7s6eQtbmgOmr69qKbD34c7KW3JOBovXL
sjBDeozD0y/tcbWydLhVrTyx/TO244wNZSHIe9x6yXEco8ULvQDzJiW+uYH5W051
CKqtB/SAfa8l90RC8mGLGQZaPBtyF7cctuMVLBTcgTnI0A2g5nF66LNbI2sD4Pby
2uX0WL3H/90Vo1q3F0DaGdiIcqgi72WhuZLSaX4VWFb4jXit2w24yw2kpDpe4Q==
-----END CERTIFICATE-----
